; Function Attrs: mustprogress uwtable
define internal noundef nonnull ptr @_ZNK7testing8internal26CartesianProductGenerator3IN11opencv_test12_GLOBAL__N_18NormTypeEN4perf7MatTypeEbE5BeginEv(ptr noundef nonnull align 8 dereferenceable(56) %0) unnamed_addr #4 align 2 personality ptr @__gxx_personality_v0 {
  %2 = alloca %"class.testing::internal::ParamIterator", align 8
  %3 = alloca %"class.testing::internal::ParamIterator.115", align 8
  %4 = alloca %"class.testing::internal::ParamIterator.117", align 8
  %5 = tail call noalias noundef nonnull dereferenceable(104) ptr @_Znwm(i64 noundef 104) #32
  %6 = getelementptr inbounds nuw i8, ptr %0, i64 8
  call void @llvm.lifetime.start.p0(i64 8, ptr nonnull %2) #31
  %.val = load ptr, ptr %6, align 8, !tbaa !120
  tail call void @llvm.experimental.noalias.scope.decl(metadata !325)
  %7 = load ptr, ptr %.val, align 8, !tbaa !19, !noalias !325
  %8 = getelementptr inbounds nuw i8, ptr %7, i64 16
  %9 = load ptr, ptr %8, align 8, !noalias !325
  %10 = invoke noundef ptr %9(ptr noundef nonnull align 8 dereferenceable(8) %.val)
          to label %11 unwind label %54

11:                                               ; preds = %1
  store ptr %10, ptr %2, align 8, !tbaa !328, !alias.scope !325
  %12 = getelementptr inbounds nuw i8, ptr %0, i64 24
  call void @llvm.lifetime.start.p0(i64 8, ptr nonnull %3) #31
  tail call void @llvm.experimental.noalias.scope.decl(metadata !331)
  %13 = load ptr, ptr %12, align 8, !tbaa !140, !noalias !331
  %14 = load ptr, ptr %13, align 8, !tbaa !19, !noalias !331
  %15 = getelementptr inbounds nuw i8, ptr %14, i64 16
  %16 = load ptr, ptr %15, align 8, !noalias !331
  %17 = invoke noundef ptr %16(ptr noundef nonnull align 8 dereferenceable(8) %13)
          to label %18 unwind label %56

18:                                               ; preds = %11
  store ptr %17, ptr %3, align 8, !tbaa !334, !alias.scope !331
  %19 = getelementptr inbounds nuw i8, ptr %0, i64 40
  call void @llvm.lifetime.start.p0(i64 8, ptr nonnull %4) #31
  tail call void @llvm.experimental.noalias.scope.decl(metadata !337)
  %20 = load ptr, ptr %19, align 8, !tbaa !92, !noalias !337
  %21 = load ptr, ptr %20, align 8, !tbaa !19, !noalias !337
  %22 = getelementptr inbounds nuw i8, ptr %21, i64 16
  %23 = load ptr, ptr %22, align 8, !noalias !337
  %24 = invoke noundef ptr %23(ptr noundef nonnull align 8 dereferenceable(8) %20)
          to label %25 unwind label %58

25:                                               ; preds = %18
  store ptr %24, ptr %4, align 8, !tbaa !340, !alias.scope !337
  invoke fastcc void @_ZN7testing8internal26CartesianProductGenerator3IN11opencv_test12_GLOBAL__N_18NormTypeEN4perf7MatTypeEbE8IteratorC2EPKNS0_23ParamGeneratorInterfaceISt5tupleIJS4_S6_bEEEERKNS0_14ParamGeneratorIS4_EERKNS0_13ParamIteratorIS4_EERKNSF_IS6_EERKNSJ_IS6_EERKNSF_IbEERKNSJ_IbEE(ptr noundef nonnull align 8 dereferenceable(104) %5, ptr noundef %0, ptr noundef nonnull align 8 dereferenceable(16) %6, ptr %10, ptr noundef nonnull align 8 dereferenceable(16) %12, ptr noundef nonnull align 8 dereferenceable(8) %3, ptr noundef nonnull align 8 dereferenceable(16) %19, ptr noundef nonnull align 8 dereferenceable(8) %4)
          to label %26 unwind label %60

26:                                               ; preds = %25
  %.not.i.i.i = icmp eq ptr %24, null
  br i1 %.not.i.i.i, label %_ZN7testing8internal13ParamIteratorIbED2Ev.exit, label %27

27:                                               ; preds = %26
  %28 = invoke noundef zeroext i1 @_ZN7testing8internal6IsTrueEb(i1 noundef zeroext true)
          to label %.noexc.i.i unwind label %33

.noexc.i.i:                                       ; preds = %27
  br i1 %28, label %29, label %_ZN7testing8internal13ParamIteratorIbED2Ev.exit

29:                                               ; preds = %.noexc.i.i
  %30 = load ptr, ptr %24, align 8, !tbaa !19
  %31 = getelementptr inbounds nuw i8, ptr %30, i64 8
  %32 = load ptr, ptr %31, align 8
  tail call void %32(ptr noundef nonnull align 8 dereferenceable(8) %24) #31
  br label %_ZN7testing8internal13ParamIteratorIbED2Ev.exit

33:                                               ; preds = %27
  %34 = landingpad { ptr, i32 }
          catch ptr null
  %35 = extractvalue { ptr, i32 } %34, 0
  tail call void @__clang_call_terminate(ptr %35) #34
  unreachable

_ZN7testing8internal13ParamIteratorIbED2Ev.exit:  ; preds = %.noexc.i.i, %29, %26
  call void @llvm.lifetime.end.p0(i64 8, ptr nonnull %4) #31
  %.not.i.i.i10 = icmp eq ptr %17, null
  br i1 %.not.i.i.i10, label %_ZN7testing8internal13ParamIteratorIN4perf7MatTypeEED2Ev.exit, label %36

36:                                               ; preds = %_ZN7testing8internal13ParamIteratorIbED2Ev.exit
  %37 = invoke noundef zeroext i1 @_ZN7testing8internal6IsTrueEb(i1 noundef zeroext true)
          to label %.noexc.i.i11 unwind label %42

.noexc.i.i11:                                     ; preds = %36
  br i1 %37, label %38, label %_ZN7testing8internal13ParamIteratorIN4perf7MatTypeEED2Ev.exit

38:                                               ; preds = %.noexc.i.i11
  %39 = load ptr, ptr %17, align 8, !tbaa !19
  %40 = getelementptr inbounds nuw i8, ptr %39, i64 8
  %41 = load ptr, ptr %40, align 8
  tail call void %41(ptr noundef nonnull align 8 dereferenceable(8) %17) #31
  br label %_ZN7testing8internal13ParamIteratorIN4perf7MatTypeEED2Ev.exit

42:                                               ; preds = %36
  %43 = landingpad { ptr, i32 }
          catch ptr null
  %44 = extractvalue { ptr, i32 } %43, 0
  tail call void @__clang_call_terminate(ptr %44) #34
  unreachable

_ZN7testing8internal13ParamIteratorIN4perf7MatTypeEED2Ev.exit: ; preds = %.noexc.i.i11, %38, %_ZN7testing8internal13ParamIteratorIbED2Ev.exit
  call void @llvm.lifetime.end.p0(i64 8, ptr nonnull %3) #31
  %.not.i.i.i12 = icmp eq ptr %10, null
  br i1 %.not.i.i.i12, label %_ZN7testing8internal13ParamIteratorIN11opencv_test12_GLOBAL__N_18NormTypeEED2Ev.exit, label %45

45:                                               ; preds = %_ZN7testing8internal13ParamIteratorIN4perf7MatTypeEED2Ev.exit
  %46 = invoke noundef zeroext i1 @_ZN7testing8internal6IsTrueEb(i1 noundef zeroext true)
          to label %.noexc.i.i13 unwind label %51

.noexc.i.i13:                                     ; preds = %45
  br i1 %46, label %47, label %_ZN7testing8internal13ParamIteratorIN11opencv_test12_GLOBAL__N_18NormTypeEED2Ev.exit

47:                                               ; preds = %.noexc.i.i13
  %48 = load ptr, ptr %10, align 8, !tbaa !19
  %49 = getelementptr inbounds nuw i8, ptr %48, i64 8
  %50 = load ptr, ptr %49, align 8
  tail call void %50(ptr noundef nonnull align 8 dereferenceable(8) %10) #31
  br label %_ZN7testing8internal13ParamIteratorIN11opencv_test12_GLOBAL__N_18NormTypeEED2Ev.exit

51:                                               ; preds = %45
  %52 = landingpad { ptr, i32 }
          catch ptr null
  %53 = extractvalue { ptr, i32 } %52, 0
  tail call void @__clang_call_terminate(ptr %53) #34
  unreachable

_ZN7testing8internal13ParamIteratorIN11opencv_test12_GLOBAL__N_18NormTypeEED2Ev.exit: ; preds = %.noexc.i.i13, %47, %_ZN7testing8internal13ParamIteratorIN4perf7MatTypeEED2Ev.exit
  call void @llvm.lifetime.end.p0(i64 8, ptr nonnull %2) #31
  ret ptr %5

54:                                               ; preds = %1
  %55 = landingpad { ptr, i32 }
          cleanup
  br label %64

56:                                               ; preds = %11
  %57 = landingpad { ptr, i32 }
          cleanup
  br label %63

58:                                               ; preds = %18
  %59 = landingpad { ptr, i32 }
          cleanup
  br label %62

60:                                               ; preds = %25
  %61 = landingpad { ptr, i32 }
          cleanup
  call void @_ZN7testing8internal13ParamIteratorIbED2Ev(ptr noundef nonnull align 8 dereferenceable(8) %4) #31
  br label %62

62:                                               ; preds = %60, %58
  %.pn = phi { ptr, i32 } [ %61, %60 ], [ %59, %58 ]
  call void @llvm.lifetime.end.p0(i64 8, ptr nonnull %4) #31
  call void @_ZN7testing8internal13ParamIteratorIN4perf7MatTypeEED2Ev(ptr noundef nonnull align 8 dereferenceable(8) %3) #31
  br label %63

63:                                               ; preds = %62, %56
  %.pn.pn = phi { ptr, i32 } [ %.pn, %62 ], [ %57, %56 ]
  call void @llvm.lifetime.end.p0(i64 8, ptr nonnull %3) #31
  call fastcc void @_ZN7testing8internal13ParamIteratorIN11opencv_test12_GLOBAL__N_18NormTypeEED2Ev(ptr noundef nonnull align 8 dereferenceable(8) %2) #31
  br label %64

64:                                               ; preds = %63, %54
  %.pn.pn.pn = phi { ptr, i32 } [ %.pn.pn, %63 ], [ %55, %54 ]
  call void @llvm.lifetime.end.p0(i64 8, ptr nonnull %2) #31
  call void @_ZdlPv(ptr noundef nonnull %5) #33
  resume { ptr, i32 } %.pn.pn.pn
}